target datalayout = "e-m:e-p270:32:32-p271:32:32-p272:64:64-i64:64-i128:128-f80:128-n8:16:32:64-S128"
target triple = "x86_64-pc-linux-gnu"

%struct.hwloc_infos_s = type { ptr, i32, i32 }
%struct.hwloc_obj = type { i32, ptr, i32, ptr, i64, ptr, i32, i32, ptr, ptr, ptr, i32, ptr, ptr, i32, ptr, ptr, ptr, i32, i32, ptr, i32, ptr, i32, ptr, ptr, ptr, ptr, ptr, %struct.hwloc_infos_s, ptr, i64 }
%struct.dirent = type { i64, i64, i16, i8, [256 x i8] }
%struct.hwloc_linux_backend_data_s = type { ptr, i32, i32, ptr, ptr, i32, i32, i32, i32, i32, i32, i32, %struct.utsname, i32, i32, i32 }
%struct.utsname = type { [65 x i8], [65 x i8], [65 x i8], [65 x i8], [65 x i8], [65 x i8] }

@.str.405 = private unnamed_addr constant [51 x i8] c"/sys/devices/system/node/node%u/access1/initiators\00", align 1
@.str.406 = private unnamed_addr constant [51 x i8] c"/sys/devices/system/node/node%u/access0/initiators\00", align 1
@.str.407 = private unnamed_addr constant [7 x i8] c"node%u\00", align 1

; Function Attrs: nounwind uwtable
define internal ptr @hwloc_checkat(ptr noundef %0, i32 noundef %1) #0 {
  %3 = alloca ptr, align 8
  %4 = alloca i32, align 4
  %5 = alloca ptr, align 8
  store ptr %0, ptr %3, align 8, !tbaa !3
  store i32 %1, ptr %4, align 4, !tbaa !10
  call void @llvm.lifetime.start.p0(i64 8, ptr %5) #14
  %6 = load ptr, ptr %3, align 8, !tbaa !3
  store ptr %6, ptr %5, align 8, !tbaa !3
  %7 = load i32, ptr %4, align 4, !tbaa !10
  %8 = icmp sge i32 %7, 0
  br i1 %8, label %9, label %20

9:                                                ; preds = %2
  br label %10

10:                                               ; preds = %16, %9
  %11 = load ptr, ptr %5, align 8, !tbaa !3
  %12 = load i8, ptr %11, align 1, !tbaa !54
  %13 = sext i8 %12 to i32
  %14 = icmp eq i32 %13, 47
  br i1 %14, label %15, label %19

15:                                               ; preds = %10
  br label %16

16:                                               ; preds = %15
  %17 = load ptr, ptr %5, align 8, !tbaa !3
  %18 = getelementptr inbounds nuw i8, ptr %17, i32 1
  store ptr %18, ptr %5, align 8, !tbaa !3
  br label %10, !llvm.loop !97

19:                                               ; preds = %10
  br label %20

20:                                               ; preds = %19, %2
  %21 = load ptr, ptr %5, align 8, !tbaa !3
  call void @llvm.lifetime.end.p0(i64 8, ptr %5) #14
  ret ptr %21
}

; Function Attrs: nounwind uwtable
define internal ptr @hwloc_opendirat(ptr noundef %0, i32 noundef %1) #0 {
  %3 = alloca ptr, align 8
  %4 = alloca ptr, align 8
  %5 = alloca i32, align 4
  %6 = alloca i32, align 4
  %7 = alloca ptr, align 8
  %8 = alloca i32, align 4
  store ptr %0, ptr %4, align 8, !tbaa !3
  store i32 %1, ptr %5, align 4, !tbaa !10
  call void @llvm.lifetime.start.p0(i64 4, ptr %6) #14
  call void @llvm.lifetime.start.p0(i64 8, ptr %7) #14
  %9 = load ptr, ptr %4, align 8, !tbaa !3
  %10 = load i32, ptr %5, align 4, !tbaa !10
  %11 = call ptr @hwloc_checkat(ptr noundef %9, i32 noundef %10)
  store ptr %11, ptr %7, align 8, !tbaa !3
  %12 = load ptr, ptr %7, align 8, !tbaa !3
  %13 = icmp ne ptr %12, null
  br i1 %13, label %15, label %14

14:                                               ; preds = %2
  store ptr null, ptr %3, align 8
  store i32 1, ptr %8, align 4
  br label %25

15:                                               ; preds = %2
  %16 = load i32, ptr %5, align 4, !tbaa !10
  %17 = load ptr, ptr %7, align 8, !tbaa !3
  %18 = call i32 (i32, ptr, i32, ...) @openat(i32 noundef %16, ptr noundef %17, i32 noundef 65536)
  store i32 %18, ptr %6, align 4, !tbaa !10
  %19 = load i32, ptr %6, align 4, !tbaa !10
  %20 = icmp slt i32 %19, 0
  br i1 %20, label %21, label %22

21:                                               ; preds = %15
  store ptr null, ptr %3, align 8
  store i32 1, ptr %8, align 4
  br label %25

22:                                               ; preds = %15
  %23 = load i32, ptr %6, align 4, !tbaa !10
  %24 = call ptr @fdopendir(i32 noundef %23)
  store ptr %24, ptr %3, align 8
  store i32 1, ptr %8, align 4
  br label %25

25:                                               ; preds = %22, %21, %14
  call void @llvm.lifetime.end.p0(i64 8, ptr %7) #14
  call void @llvm.lifetime.end.p0(i64 4, ptr %6) #14
  %26 = load ptr, ptr %3, align 8
  ret ptr %26
}

; Function Attrs: inlinehint nounwind uwtable
define internal ptr @hwloc_opendir(ptr noundef %0, i32 noundef %1) #1 {
  %3 = alloca ptr, align 8
  %4 = alloca i32, align 4
  store ptr %0, ptr %3, align 8, !tbaa !3
  store i32 %1, ptr %4, align 4, !tbaa !10
  %5 = load ptr, ptr %3, align 8, !tbaa !3
  %6 = load i32, ptr %4, align 4, !tbaa !10
  %7 = call ptr @hwloc_opendirat(ptr noundef %5, i32 noundef %6)
  ret ptr %7
}

; Function Attrs: nounwind uwtable
define internal i32 @read_node_initiators(ptr noundef %0, ptr noundef %1, i32 noundef %2, ptr noundef %3) #0 {
  %5 = alloca i32, align 4
  %6 = alloca ptr, align 8
  %7 = alloca ptr, align 8
  %8 = alloca i32, align 4
  %9 = alloca ptr, align 8
  %10 = alloca [128 x i8], align 16
  %11 = alloca ptr, align 8
  %12 = alloca ptr, align 8
  %13 = alloca i32, align 4
  %14 = alloca i32, align 4
  %15 = alloca i32, align 4
  store ptr %0, ptr %6, align 8, !tbaa !140
  store ptr %1, ptr %7, align 8, !tbaa !47
  store i32 %2, ptr %8, align 4, !tbaa !10
  store ptr %3, ptr %9, align 8, !tbaa !45
  call void @llvm.lifetime.start.p0(i64 128, ptr %10) #14
  call void @llvm.lifetime.start.p0(i64 8, ptr %11) #14
  call void @llvm.lifetime.start.p0(i64 8, ptr %12) #14
  %16 = getelementptr inbounds [128 x i8], ptr %10, i64 0, i64 0
  %17 = load ptr, ptr %7, align 8, !tbaa !47
  %18 = getelementptr inbounds nuw %struct.hwloc_obj, ptr %17, i32 0, i32 2
  %19 = load i32, ptr %18, align 8, !tbaa !267
  %20 = call i32 (ptr, ptr, ...) @sprintf(ptr noundef %16, ptr noundef @.str.405, i32 noundef %19) #14
  %21 = getelementptr inbounds [128 x i8], ptr %10, i64 0, i64 0
  %22 = load ptr, ptr %6, align 8, !tbaa !140
  %23 = getelementptr inbounds nuw %struct.hwloc_linux_backend_data_s, ptr %22, i32 0, i32 1
  %24 = load i32, ptr %23, align 8, !tbaa !157
  %25 = call ptr @hwloc_opendir(ptr noundef %21, i32 noundef %24)
  store ptr %25, ptr %11, align 8, !tbaa !98
  %26 = load ptr, ptr %11, align 8, !tbaa !98
  %27 = icmp ne ptr %26, null
  br i1 %27, label %43, label %28

28:                                               ; preds = %4
  %29 = getelementptr inbounds [128 x i8], ptr %10, i64 0, i64 0
  %30 = load ptr, ptr %7, align 8, !tbaa !47
  %31 = getelementptr inbounds nuw %struct.hwloc_obj, ptr %30, i32 0, i32 2
  %32 = load i32, ptr %31, align 8, !tbaa !267
  %33 = call i32 (ptr, ptr, ...) @sprintf(ptr noundef %29, ptr noundef @.str.406, i32 noundef %32) #14
  %34 = getelementptr inbounds [128 x i8], ptr %10, i64 0, i64 0
  %35 = load ptr, ptr %6, align 8, !tbaa !140
  %36 = getelementptr inbounds nuw %struct.hwloc_linux_backend_data_s, ptr %35, i32 0, i32 1
  %37 = load i32, ptr %36, align 8, !tbaa !157
  %38 = call ptr @hwloc_opendir(ptr noundef %34, i32 noundef %37)
  store ptr %38, ptr %11, align 8, !tbaa !98
  %39 = load ptr, ptr %11, align 8, !tbaa !98
  %40 = icmp ne ptr %39, null
  br i1 %40, label %42, label %41

41:                                               ; preds = %28
  store i32 -1, ptr %5, align 4
  store i32 1, ptr %13, align 4
  br label %106

42:                                               ; preds = %28
  br label %43

43:                                               ; preds = %42, %4
  br label %44

44:                                               ; preds = %102, %43
  %45 = load ptr, ptr %11, align 8, !tbaa !98
  %46 = call ptr @readdir(ptr noundef %45)
  store ptr %46, ptr %12, align 8, !tbaa !106
  %47 = icmp ne ptr %46, null
  br i1 %47, label %48, label %103

48:                                               ; preds = %44
  call void @llvm.lifetime.start.p0(i64 4, ptr %14) #14
  %49 = load ptr, ptr %12, align 8, !tbaa !106
  %50 = getelementptr inbounds nuw %struct.dirent, ptr %49, i32 0, i32 4
  %51 = getelementptr inbounds [256 x i8], ptr %50, i64 0, i64 0
  %52 = call i32 (ptr, ptr, ...) @__isoc99_sscanf(ptr noundef %51, ptr noundef @.str.407, ptr noundef %14) #14
  %53 = icmp eq i32 %52, 1
  br i1 %53, label %54, label %102

54:                                               ; preds = %48
  %55 = load i32, ptr %14, align 4, !tbaa !10
  %56 = load ptr, ptr %7, align 8, !tbaa !47
  %57 = getelementptr inbounds nuw %struct.hwloc_obj, ptr %56, i32 0, i32 2
  %58 = load i32, ptr %57, align 8, !tbaa !267
  %59 = icmp ne i32 %55, %58
  br i1 %59, label %60, label %102

60:                                               ; preds = %54
  call void @llvm.lifetime.start.p0(i64 4, ptr %15) #14
  store i32 0, ptr %15, align 4, !tbaa !10
  br label %61

61:                                               ; preds = %98, %60
  %62 = load i32, ptr %15, align 4, !tbaa !10
  %63 = load i32, ptr %8, align 4, !tbaa !10
  %64 = icmp ult i32 %62, %63
  br i1 %64, label %65, label %101

65:                                               ; preds = %61
  %66 = load ptr, ptr %9, align 8, !tbaa !45
  %67 = load i32, ptr %15, align 4, !tbaa !10
  %68 = zext i32 %67 to i64
  %69 = getelementptr inbounds nuw ptr, ptr %66, i64 %68
  %70 = load ptr, ptr %69, align 8, !tbaa !47
  %71 = icmp ne ptr %70, null
  br i1 %71, label %72, label %97

72:                                               ; preds = %65
  %73 = load ptr, ptr %9, align 8, !tbaa !45
  %74 = load i32, ptr %15, align 4, !tbaa !10
  %75 = zext i32 %74 to i64
  %76 = getelementptr inbounds nuw ptr, ptr %73, i64 %75
  %77 = load ptr, ptr %76, align 8, !tbaa !47
  %78 = getelementptr inbounds nuw %struct.hwloc_obj, ptr %77, i32 0, i32 2
  %79 = load i32, ptr %78, align 8, !tbaa !267
  %80 = load i32, ptr %14, align 4, !tbaa !10
  %81 = icmp eq i32 %79, %80
  br i1 %81, label %82, label %97

82:                                               ; preds = %72
  %83 = load ptr, ptr %7, align 8, !tbaa !47
  %84 = getelementptr inbounds nuw %struct.hwloc_obj, ptr %83, i32 0, i32 25
  %85 = load ptr, ptr %84, align 8, !tbaa !243
  %86 = load ptr, ptr %7, align 8, !tbaa !47
  %87 = getelementptr inbounds nuw %struct.hwloc_obj, ptr %86, i32 0, i32 25
  %88 = load ptr, ptr %87, align 8, !tbaa !243
  %89 = load ptr, ptr %9, align 8, !tbaa !45
  %90 = load i32, ptr %15, align 4, !tbaa !10
  %91 = zext i32 %90 to i64
  %92 = getelementptr inbounds nuw ptr, ptr %89, i64 %91
  %93 = load ptr, ptr %92, align 8, !tbaa !47
  %94 = getelementptr inbounds nuw %struct.hwloc_obj, ptr %93, i32 0, i32 25
  %95 = load ptr, ptr %94, align 8, !tbaa !243
  %96 = call i32 @hwloc_bitmap_or(ptr noundef %85, ptr noundef %88, ptr noundef %95)
  br label %101

97:                                               ; preds = %72, %65
  br label %98

98:                                               ; preds = %97
  %99 = load i32, ptr %15, align 4, !tbaa !10
  %100 = add i32 %99, 1
  store i32 %100, ptr %15, align 4, !tbaa !10
  br label %61, !llvm.loop !327

101:                                              ; preds = %82, %61
  call void @llvm.lifetime.end.p0(i64 4, ptr %15) #14
  br label %102

102:                                              ; preds = %101, %54, %48
  call void @llvm.lifetime.end.p0(i64 4, ptr %14) #14
  br label %44, !llvm.loop !328

103:                                              ; preds = %44
  %104 = load ptr, ptr %11, align 8, !tbaa !98
  %105 = call i32 @closedir(ptr noundef %104)
  store i32 0, ptr %5, align 4
  store i32 1, ptr %13, align 4
  br label %106

106:                                              ; preds = %103, %41
  call void @llvm.lifetime.end.p0(i64 8, ptr %12) #14
  call void @llvm.lifetime.end.p0(i64 8, ptr %11) #14
  call void @llvm.lifetime.end.p0(i64 128, ptr %10) #14
  %107 = load i32, ptr %5, align 4
  ret i32 %107
}