; Function Attrs: nounwind uwtable
define internal fastcc range(i32 -1, 1) i32 @read_node_initiators(ptr noundef readonly captures(none) %0, ptr noundef nonnull readonly captures(none) %1, i32 noundef %2, ptr noundef nonnull readonly captures(none) %3) unnamed_addr #0 {
  %5 = alloca [128 x i8], align 16
  %6 = alloca i32, align 4
  call void @llvm.lifetime.start.p0(i64 128, ptr nonnull %5) #27
  %7 = getelementptr inbounds nuw i8, ptr %1, i64 16
  %8 = load i32, ptr %7, align 8, !tbaa !241
  %9 = call i32 (ptr, ptr, ...) @sprintf(ptr noundef nonnull dereferenceable(1) %5, ptr noundef nonnull dereferenceable(1) @.str.405, i32 noundef %8) #27
  %10 = getelementptr inbounds nuw i8, ptr %0, i64 8
  %11 = load i32, ptr %10, align 8, !tbaa !127
  %12 = icmp sgt i32 %11, -1
  br i1 %12, label %.preheader.i.i.i, label %hwloc_checkat.exit.thread.i.i

.preheader.i.i.i:                                 ; preds = %4, %.preheader.i.i.i
  %.1.i.i.i = phi ptr [ %15, %.preheader.i.i.i ], [ %5, %4 ]
  %13 = load i8, ptr %.1.i.i.i, align 1, !tbaa !7
  %14 = icmp eq i8 %13, 47
  %15 = getelementptr inbounds nuw i8, ptr %.1.i.i.i, i64 1
  br i1 %14, label %.preheader.i.i.i, label %hwloc_checkat.exit.thread.i.i, !llvm.loop !8

hwloc_checkat.exit.thread.i.i:                    ; preds = %.preheader.i.i.i, %4
  %.0.i11.i.i = phi ptr [ %5, %4 ], [ %.1.i.i.i, %.preheader.i.i.i ]
  %16 = call i32 (i32, ptr, i32, ...) @openat(i32 noundef %11, ptr noundef nonnull %.0.i11.i.i, i32 noundef 65536) #27
  %17 = icmp slt i32 %16, 0
  br i1 %17, label %hwloc_opendir.exit.thread, label %hwloc_opendir.exit

hwloc_opendir.exit:                               ; preds = %hwloc_checkat.exit.thread.i.i
  %18 = call ptr @fdopendir(i32 noundef %16) #27
  %.not = icmp eq ptr %18, null
  br i1 %.not, label %hwloc_opendir.exit.thread, label %29

hwloc_opendir.exit.thread:                        ; preds = %hwloc_checkat.exit.thread.i.i, %hwloc_opendir.exit
  %19 = load i32, ptr %7, align 8, !tbaa !241
  %20 = call i32 (ptr, ptr, ...) @sprintf(ptr noundef nonnull dereferenceable(1) %5, ptr noundef nonnull dereferenceable(1) @.str.406, i32 noundef %19) #27
  %21 = load i32, ptr %10, align 8, !tbaa !127
  %22 = icmp sgt i32 %21, -1
  br i1 %22, label %.preheader.i.i.i35, label %hwloc_checkat.exit.thread.i.i32

.preheader.i.i.i35:                               ; preds = %hwloc_opendir.exit.thread, %.preheader.i.i.i35
  %.1.i.i.i36 = phi ptr [ %25, %.preheader.i.i.i35 ], [ %5, %hwloc_opendir.exit.thread ]
  %23 = load i8, ptr %.1.i.i.i36, align 1, !tbaa !7
  %24 = icmp eq i8 %23, 47
  %25 = getelementptr inbounds nuw i8, ptr %.1.i.i.i36, i64 1
  br i1 %24, label %.preheader.i.i.i35, label %hwloc_checkat.exit.thread.i.i32, !llvm.loop !8

hwloc_checkat.exit.thread.i.i32:                  ; preds = %.preheader.i.i.i35, %hwloc_opendir.exit.thread
  %.0.i11.i.i33 = phi ptr [ %5, %hwloc_opendir.exit.thread ], [ %.1.i.i.i36, %.preheader.i.i.i35 ]
  %26 = call i32 (i32, ptr, i32, ...) @openat(i32 noundef %21, ptr noundef nonnull %.0.i11.i.i33, i32 noundef 65536) #27
  %27 = icmp slt i32 %26, 0
  br i1 %27, label %hwloc_opendir.exit37.thread, label %hwloc_opendir.exit37

hwloc_opendir.exit37:                             ; preds = %hwloc_checkat.exit.thread.i.i32
  %28 = call ptr @fdopendir(i32 noundef %26) #27
  %.not27 = icmp eq ptr %28, null
  br i1 %.not27, label %hwloc_opendir.exit37.thread, label %29

29:                                               ; preds = %hwloc_opendir.exit37, %hwloc_opendir.exit
  %.022 = phi ptr [ %18, %hwloc_opendir.exit ], [ %28, %hwloc_opendir.exit37 ]
  %30 = call ptr @readdir(ptr noundef nonnull %.022) #27
  %.not2843 = icmp eq ptr %30, null
  br i1 %.not2843, label %._crit_edge, label %.lr.ph44

.lr.ph44:                                         ; preds = %29
  %.not45 = icmp eq i32 %2, 0
  %31 = getelementptr inbounds nuw i8, ptr %1, i64 184
  br i1 %.not45, label %.lr.ph44.split, label %.lr.ph44.split.us.preheader

.lr.ph44.split.us.preheader:                      ; preds = %.lr.ph44
  %wide.trip.count = zext i32 %2 to i64
  br label %.lr.ph44.split.us

.lr.ph44.split.us:                                ; preds = %.lr.ph44.split.us.preheader, %..loopexit_crit_edge.us
  %32 = phi ptr [ %51, %..loopexit_crit_edge.us ], [ %30, %.lr.ph44.split.us.preheader ]
  call void @llvm.lifetime.start.p0(i64 4, ptr nonnull %6) #27
  %33 = getelementptr inbounds nuw i8, ptr %32, i64 19
  %34 = call i32 (ptr, ptr, ...) @__isoc99_sscanf(ptr noundef nonnull %33, ptr noundef nonnull @.str.407, ptr noundef nonnull %6) #27
  %35 = icmp eq i32 %34, 1
  br i1 %35, label %36, label %..loopexit_crit_edge.us

36:                                               ; preds = %.lr.ph44.split.us
  %37 = load i32, ptr %6, align 4, !tbaa !3
  %38 = load i32, ptr %7, align 8, !tbaa !241
  %.not29.us = icmp eq i32 %37, %38
  br i1 %.not29.us, label %..loopexit_crit_edge.us, label %.preheader.us

.preheader.us:                                    ; preds = %36, %50
  %indvars.iv = phi i64 [ %indvars.iv.next, %50 ], [ 0, %36 ]
  %39 = getelementptr inbounds nuw ptr, ptr %3, i64 %indvars.iv
  %40 = load ptr, ptr %39, align 8, !tbaa !42
  %.not30.us = icmp eq ptr %40, null
  br i1 %.not30.us, label %50, label %41

41:                                               ; preds = %.preheader.us
  %42 = getelementptr inbounds nuw i8, ptr %40, i64 16
  %43 = load i32, ptr %42, align 8, !tbaa !241
  %44 = icmp eq i32 %43, %37
  br i1 %44, label %45, label %50

45:                                               ; preds = %41
  %46 = load ptr, ptr %31, align 8, !tbaa !205
  %47 = getelementptr inbounds nuw i8, ptr %40, i64 184
  %48 = load ptr, ptr %47, align 8, !tbaa !205
  %49 = call i32 @hwloc_bitmap_or(ptr noundef %46, ptr noundef %46, ptr noundef %48) #27
  br label %..loopexit_crit_edge.us

50:                                               ; preds = %41, %.preheader.us
  %indvars.iv.next = add nuw nsw i64 %indvars.iv, 1
  %exitcond.not = icmp eq i64 %indvars.iv.next, %wide.trip.count
  br i1 %exitcond.not, label %..loopexit_crit_edge.us, label %.preheader.us, !llvm.loop !288

..loopexit_crit_edge.us:                          ; preds = %50, %45, %36, %.lr.ph44.split.us
  call void @llvm.lifetime.end.p0(i64 4, ptr nonnull %6) #27
  %51 = call ptr @readdir(ptr noundef nonnull %.022) #27
  %.not28.us = icmp eq ptr %51, null
  br i1 %.not28.us, label %._crit_edge, label %.lr.ph44.split.us, !llvm.loop !289

.lr.ph44.split:                                   ; preds = %.lr.ph44, %.lr.ph44.split
  %52 = phi ptr [ %55, %.lr.ph44.split ], [ %30, %.lr.ph44 ]
  call void @llvm.lifetime.start.p0(i64 4, ptr nonnull %6) #27
  %53 = getelementptr inbounds nuw i8, ptr %52, i64 19
  %54 = call i32 (ptr, ptr, ...) @__isoc99_sscanf(ptr noundef nonnull %53, ptr noundef nonnull @.str.407, ptr noundef nonnull %6) #27
  call void @llvm.lifetime.end.p0(i64 4, ptr nonnull %6) #27
  %55 = call ptr @readdir(ptr noundef nonnull %.022) #27
  %.not28 = icmp eq ptr %55, null
  br i1 %.not28, label %._crit_edge, label %.lr.ph44.split, !llvm.loop !289

._crit_edge:                                      ; preds = %..loopexit_crit_edge.us, %.lr.ph44.split, %29
  %56 = call i32 @closedir(ptr noundef nonnull %.022)
  br label %hwloc_opendir.exit37.thread

hwloc_opendir.exit37.thread:                      ; preds = %hwloc_checkat.exit.thread.i.i32, %hwloc_opendir.exit37, %._crit_edge
  %.021 = phi i32 [ 0, %._crit_edge ], [ -1, %hwloc_opendir.exit37 ], [ -1, %hwloc_checkat.exit.thread.i.i32 ]
  call void @llvm.lifetime.end.p0(i64 128, ptr nonnull %5) #27
  ret i32 %.021
}